; Function Attrs: nounwind uwtable
define internal void @property_dealloc(ptr noundef %0) #0 {
  %2 = getelementptr i8, ptr %0, i64 -16
  %3 = getelementptr i8, ptr %0, i64 -8
  %.val.i = load i64, ptr %3, align 8, !tbaa !4
  %4 = and i64 %.val.i, -4
  %5 = inttoptr i64 %4 to ptr
  %.val9.i = load i64, ptr %2, align 8, !tbaa !9
  %6 = and i64 %.val9.i, -4
  %7 = inttoptr i64 %6 to ptr
  %8 = load i64, ptr %5, align 8, !tbaa !9
  %9 = and i64 %8, 3
  %10 = or disjoint i64 %9, %6
  store i64 %10, ptr %5, align 8, !tbaa !9
  %11 = getelementptr inbounds nuw i8, ptr %7, i64 8
  %12 = load i64, ptr %11, align 8, !tbaa !4
  %13 = and i64 %12, 3
  %14 = or disjoint i64 %13, %4
  store i64 %14, ptr %11, align 8, !tbaa !4
  store i64 0, ptr %2, align 8, !tbaa !9
  %15 = load i64, ptr %3, align 8, !tbaa !4
  %16 = and i64 %15, 1
  store i64 %16, ptr %3, align 8, !tbaa !4
  %17 = getelementptr inbounds nuw i8, ptr %0, i64 16
  %18 = load ptr, ptr %17, align 8, !tbaa !152
  %.not.i = icmp eq ptr %18, null
  br i1 %.not.i, label %Py_XDECREF.exit, label %19

19:                                               ; preds = %1
  %20 = load i32, ptr %18, align 8, !tbaa !16
  %.not.i.i = icmp sgt i32 %20, -1
  br i1 %.not.i.i, label %21, label %Py_XDECREF.exit

21:                                               ; preds = %19
  %22 = add nsw i32 %20, -1
  store i32 %22, ptr %18, align 8, !tbaa !16
  %23 = icmp eq i32 %22, 0
  br i1 %23, label %24, label %Py_XDECREF.exit

24:                                               ; preds = %21
  tail call void @_Py_Dealloc(ptr noundef nonnull %18) #9
  br label %Py_XDECREF.exit

Py_XDECREF.exit:                                  ; preds = %1, %19, %21, %24
  %25 = getelementptr inbounds nuw i8, ptr %0, i64 24
  %26 = load ptr, ptr %25, align 8, !tbaa !154
  %.not.i9 = icmp eq ptr %26, null
  br i1 %.not.i9, label %Py_XDECREF.exit11, label %27

27:                                               ; preds = %Py_XDECREF.exit
  %28 = load i32, ptr %26, align 8, !tbaa !16
  %.not.i.i10 = icmp sgt i32 %28, -1
  br i1 %.not.i.i10, label %29, label %Py_XDECREF.exit11

29:                                               ; preds = %27
  %30 = add nsw i32 %28, -1
  store i32 %30, ptr %26, align 8, !tbaa !16
  %31 = icmp eq i32 %30, 0
  br i1 %31, label %32, label %Py_XDECREF.exit11

32:                                               ; preds = %29
  tail call void @_Py_Dealloc(ptr noundef nonnull %26) #9
  br label %Py_XDECREF.exit11

Py_XDECREF.exit11:                                ; preds = %Py_XDECREF.exit, %27, %29, %32
  %33 = getelementptr inbounds nuw i8, ptr %0, i64 32
  %34 = load ptr, ptr %33, align 8, !tbaa !155
  %.not.i12 = icmp eq ptr %34, null
  br i1 %.not.i12, label %Py_XDECREF.exit14, label %35

35:                                               ; preds = %Py_XDECREF.exit11
  %36 = load i32, ptr %34, align 8, !tbaa !16
  %.not.i.i13 = icmp sgt i32 %36, -1
  br i1 %.not.i.i13, label %37, label %Py_XDECREF.exit14

37:                                               ; preds = %35
  %38 = add nsw i32 %36, -1
  store i32 %38, ptr %34, align 8, !tbaa !16
  %39 = icmp eq i32 %38, 0
  br i1 %39, label %40, label %Py_XDECREF.exit14

40:                                               ; preds = %37
  tail call void @_Py_Dealloc(ptr noundef nonnull %34) #9
  br label %Py_XDECREF.exit14

Py_XDECREF.exit14:                                ; preds = %Py_XDECREF.exit11, %35, %37, %40
  %41 = getelementptr inbounds nuw i8, ptr %0, i64 40
  %42 = load ptr, ptr %41, align 8, !tbaa !156
  %.not.i15 = icmp eq ptr %42, null
  br i1 %.not.i15, label %Py_XDECREF.exit17, label %43

43:                                               ; preds = %Py_XDECREF.exit14
  %44 = load i32, ptr %42, align 8, !tbaa !16
  %.not.i.i16 = icmp sgt i32 %44, -1
  br i1 %.not.i.i16, label %45, label %Py_XDECREF.exit17

45:                                               ; preds = %43
  %46 = add nsw i32 %44, -1
  store i32 %46, ptr %42, align 8, !tbaa !16
  %47 = icmp eq i32 %46, 0
  br i1 %47, label %48, label %Py_XDECREF.exit17

48:                                               ; preds = %45
  tail call void @_Py_Dealloc(ptr noundef nonnull %42) #9
  br label %Py_XDECREF.exit17

Py_XDECREF.exit17:                                ; preds = %Py_XDECREF.exit14, %43, %45, %48
  %49 = getelementptr inbounds nuw i8, ptr %0, i64 48
  %50 = load ptr, ptr %49, align 8, !tbaa !157
  %.not.i18 = icmp eq ptr %50, null
  br i1 %.not.i18, label %Py_XDECREF.exit20, label %51

51:                                               ; preds = %Py_XDECREF.exit17
  %52 = load i32, ptr %50, align 8, !tbaa !16
  %.not.i.i19 = icmp sgt i32 %52, -1
  br i1 %.not.i.i19, label %53, label %Py_XDECREF.exit20

53:                                               ; preds = %51
  %54 = add nsw i32 %52, -1
  store i32 %54, ptr %50, align 8, !tbaa !16
  %55 = icmp eq i32 %54, 0
  br i1 %55, label %56, label %Py_XDECREF.exit20

56:                                               ; preds = %53
  tail call void @_Py_Dealloc(ptr noundef nonnull %50) #9
  br label %Py_XDECREF.exit20

Py_XDECREF.exit20:                                ; preds = %Py_XDECREF.exit17, %51, %53, %56
  %57 = getelementptr i8, ptr %0, i64 8
  %.val = load ptr, ptr %57, align 8, !tbaa !19
  %58 = getelementptr inbounds nuw i8, ptr %.val, i64 320
  %59 = load ptr, ptr %58, align 8, !tbaa !158
  tail call void %59(ptr noundef nonnull %0) #9
  ret void
}